; Function Attrs: nounwind uwtable
define internal void @filter_dealloc(ptr noundef %0) #0 {
  tail call void @PyObject_GC_UnTrack(ptr noundef %0) #9
  %2 = tail call ptr @PyThreadState_Get() #9
  %3 = getelementptr inbounds nuw i8, ptr %2, i64 52
  %4 = load i32, ptr %3, align 4, !tbaa !4
  %5 = icmp slt i32 %4, 51
  br i1 %5, label %6, label %12

6:                                                ; preds = %1
  %7 = getelementptr i8, ptr %0, i64 8
  %.val = load ptr, ptr %7, align 8, !tbaa !20
  %8 = getelementptr inbounds nuw i8, ptr %.val, i64 48
  %9 = load ptr, ptr %8, align 8, !tbaa !23
  %10 = icmp eq ptr %9, @filter_dealloc
  br i1 %10, label %11, label %12

11:                                               ; preds = %6
  tail call void @_PyTrash_thread_deposit_object(ptr noundef nonnull %2, ptr noundef nonnull %0) #9
  br label %39

12:                                               ; preds = %6, %1
  %13 = add i32 %4, -1
  store i32 %13, ptr %3, align 4, !tbaa !4
  %14 = getelementptr inbounds nuw i8, ptr %0, i64 16
  %15 = load ptr, ptr %14, align 8, !tbaa !31
  %.not.i = icmp eq ptr %15, null
  br i1 %.not.i, label %Py_XDECREF.exit, label %16

16:                                               ; preds = %12
  %17 = load i32, ptr %15, align 8, !tbaa !33
  %.not.i.i = icmp sgt i32 %17, -1
  br i1 %.not.i.i, label %18, label %Py_XDECREF.exit

18:                                               ; preds = %16
  %19 = add nsw i32 %17, -1
  store i32 %19, ptr %15, align 8, !tbaa !33
  %20 = icmp eq i32 %19, 0
  br i1 %20, label %21, label %Py_XDECREF.exit

21:                                               ; preds = %18
  tail call void @_Py_Dealloc(ptr noundef nonnull %15) #9
  br label %Py_XDECREF.exit

Py_XDECREF.exit:                                  ; preds = %12, %16, %18, %21
  %22 = getelementptr inbounds nuw i8, ptr %0, i64 24
  %23 = load ptr, ptr %22, align 8, !tbaa !34
  %.not.i16 = icmp eq ptr %23, null
  br i1 %.not.i16, label %Py_XDECREF.exit18, label %24

24:                                               ; preds = %Py_XDECREF.exit
  %25 = load i32, ptr %23, align 8, !tbaa !33
  %.not.i.i17 = icmp sgt i32 %25, -1
  br i1 %.not.i.i17, label %26, label %Py_XDECREF.exit18

26:                                               ; preds = %24
  %27 = add nsw i32 %25, -1
  store i32 %27, ptr %23, align 8, !tbaa !33
  %28 = icmp eq i32 %27, 0
  br i1 %28, label %29, label %Py_XDECREF.exit18

29:                                               ; preds = %26
  tail call void @_Py_Dealloc(ptr noundef nonnull %23) #9
  br label %Py_XDECREF.exit18

Py_XDECREF.exit18:                                ; preds = %Py_XDECREF.exit, %24, %26, %29
  %30 = getelementptr i8, ptr %0, i64 8
  %.val15 = load ptr, ptr %30, align 8, !tbaa !20
  %31 = getelementptr inbounds nuw i8, ptr %.val15, i64 320
  %32 = load ptr, ptr %31, align 8, !tbaa !35
  tail call void %32(ptr noundef nonnull %0) #9
  %33 = load i32, ptr %3, align 4, !tbaa !4
  %34 = add i32 %33, 1
  store i32 %34, ptr %3, align 4, !tbaa !4
  %35 = getelementptr inbounds nuw i8, ptr %2, i64 168
  %36 = load ptr, ptr %35, align 8, !tbaa !36
  %.not = icmp ne ptr %36, null
  %37 = icmp sgt i32 %34, 100
  %or.cond = select i1 %.not, i1 %37, i1 false
  br i1 %or.cond, label %38, label %39

38:                                               ; preds = %Py_XDECREF.exit18
  tail call void @_PyTrash_thread_destroy_chain(ptr noundef nonnull %2) #9
  br label %39

39:                                               ; preds = %Py_XDECREF.exit18, %38, %11
  ret void
}